; Function Attrs: nounwind uwtable
define zeroext i8 @l_Lean_PersistentArray_anyMAux___at_Lean_Meta_getFVarSetToGeneralize___spec__54(ptr noundef %0, ptr noundef %1, ptr noundef %2) local_unnamed_addr #0 {
  %4 = ptrtoint ptr %2 to i64
  %5 = and i64 %4, 1
  %.not.i60 = icmp eq i64 %5, 0
  br i1 %.not.i60, label %9, label %6

6:                                                ; preds = %3
  %7 = lshr i64 %4, 1
  %8 = trunc i64 %7 to i32
  br label %lean_obj_tag.exit

9:                                                ; preds = %3
  %10 = getelementptr i8, ptr %2, i64 4
  %.val.i = load i32, ptr %10, align 4
  %11 = lshr i32 %.val.i, 24
  br label %lean_obj_tag.exit

lean_obj_tag.exit:                                ; preds = %6, %9
  %.0.i61 = phi i32 [ %8, %6 ], [ %11, %9 ]
  %12 = icmp eq i32 %.0.i61, 0
  %13 = getelementptr inbounds nuw i8, ptr %2, i64 8
  %14 = load ptr, ptr %13, align 8, !tbaa !4
  %15 = getelementptr i8, ptr %14, i64 8
  %.val59 = load i64, ptr %15, align 8, !tbaa !12
  %.mask67 = and i64 %.val59, 9223372036854775807
  %.not66 = icmp eq i64 %.mask67, 0
  br i1 %12, label %lean_nat_lt.exit, label %lean_nat_lt.exit58

lean_nat_lt.exit:                                 ; preds = %lean_obj_tag.exit
  br i1 %.not66, label %lean_dec.exit41, label %lean_dec.exit38

lean_dec.exit41:                                  ; preds = %lean_nat_lt.exit
  %16 = ptrtoint ptr %1 to i64
  %17 = and i64 %16, 1
  %.not68 = icmp eq i64 %17, 0
  br i1 %.not68, label %18, label %lean_dec.exit40

18:                                               ; preds = %lean_dec.exit41
  %19 = load i32, ptr %1, align 4, !tbaa !8
  %20 = icmp sgt i32 %19, 1
  br i1 %20, label %21, label %23, !prof !11

21:                                               ; preds = %18
  %22 = add nsw i32 %19, -1
  store i32 %22, ptr %1, align 4, !tbaa !8
  br label %lean_dec.exit40

23:                                               ; preds = %18
  %.not.i42 = icmp eq i32 %19, 0
  br i1 %.not.i42, label %lean_dec.exit40, label %24

24:                                               ; preds = %23
  tail call void @lean_dec_ref_cold(ptr noundef nonnull %1) #4
  br label %lean_dec.exit40

lean_dec.exit40:                                  ; preds = %24, %23, %21, %lean_dec.exit41
  %25 = ptrtoint ptr %0 to i64
  %26 = and i64 %25, 1
  %.not69 = icmp eq i64 %26, 0
  br i1 %.not69, label %27, label %lean_dec.exit39

27:                                               ; preds = %lean_dec.exit40
  %28 = load i32, ptr %0, align 4, !tbaa !8
  %29 = icmp sgt i32 %28, 1
  br i1 %29, label %30, label %32, !prof !11

30:                                               ; preds = %27
  %31 = add nsw i32 %28, -1
  store i32 %31, ptr %0, align 4, !tbaa !8
  br label %lean_dec.exit39

32:                                               ; preds = %27
  %.not.i44 = icmp eq i32 %28, 0
  br i1 %.not.i44, label %lean_dec.exit39, label %33

33:                                               ; preds = %32
  tail call void @lean_dec_ref_cold(ptr noundef nonnull %0) #4
  br label %lean_dec.exit39

lean_dec.exit38:                                  ; preds = %lean_nat_lt.exit
  %34 = tail call zeroext i8 @l_Array_anyMUnsafe_any___at_Lean_Meta_getFVarSetToGeneralize___spec__55(ptr noundef %0, ptr noundef %1, ptr noundef nonnull %14, i64 noundef 0, i64 noundef %.mask67)
  br label %lean_dec.exit39

lean_nat_lt.exit58:                               ; preds = %lean_obj_tag.exit
  br i1 %.not66, label %lean_dec.exit37, label %lean_dec.exit

lean_dec.exit37:                                  ; preds = %lean_nat_lt.exit58
  %35 = ptrtoint ptr %1 to i64
  %36 = and i64 %35, 1
  %.not64 = icmp eq i64 %36, 0
  br i1 %.not64, label %37, label %lean_dec.exit36

37:                                               ; preds = %lean_dec.exit37
  %38 = load i32, ptr %1, align 4, !tbaa !8
  %39 = icmp sgt i32 %38, 1
  br i1 %39, label %40, label %42, !prof !11

40:                                               ; preds = %37
  %41 = add nsw i32 %38, -1
  store i32 %41, ptr %1, align 4, !tbaa !8
  br label %lean_dec.exit36

42:                                               ; preds = %37
  %.not.i50 = icmp eq i32 %38, 0
  br i1 %.not.i50, label %lean_dec.exit36, label %43

43:                                               ; preds = %42
  tail call void @lean_dec_ref_cold(ptr noundef nonnull %1) #4
  br label %lean_dec.exit36

lean_dec.exit36:                                  ; preds = %43, %42, %40, %lean_dec.exit37
  %44 = ptrtoint ptr %0 to i64
  %45 = and i64 %44, 1
  %.not65 = icmp eq i64 %45, 0
  br i1 %.not65, label %46, label %lean_dec.exit39

46:                                               ; preds = %lean_dec.exit36
  %47 = load i32, ptr %0, align 4, !tbaa !8
  %48 = icmp sgt i32 %47, 1
  br i1 %48, label %49, label %51, !prof !11

49:                                               ; preds = %46
  %50 = add nsw i32 %47, -1
  store i32 %50, ptr %0, align 4, !tbaa !8
  br label %lean_dec.exit39

51:                                               ; preds = %46
  %.not.i52 = icmp eq i32 %47, 0
  br i1 %.not.i52, label %lean_dec.exit39, label %52

52:                                               ; preds = %51
  tail call void @lean_dec_ref_cold(ptr noundef nonnull %0) #4
  br label %lean_dec.exit39

lean_dec.exit:                                    ; preds = %lean_nat_lt.exit58
  %53 = tail call zeroext i8 @l_Array_anyMUnsafe_any___at_Lean_Meta_getFVarSetToGeneralize___spec__56(ptr noundef %0, ptr noundef %1, ptr noundef nonnull %14, i64 noundef 0, i64 noundef %.mask67)
  br label %lean_dec.exit39

lean_dec.exit39:                                  ; preds = %lean_dec.exit36, %49, %51, %52, %lean_dec.exit40, %30, %32, %33, %lean_dec.exit, %lean_dec.exit38
  %.1 = phi i8 [ %34, %lean_dec.exit38 ], [ %53, %lean_dec.exit ], [ 0, %33 ], [ 0, %32 ], [ 0, %30 ], [ 0, %lean_dec.exit40 ], [ 0, %52 ], [ 0, %51 ], [ 0, %49 ], [ 0, %lean_dec.exit36 ]
  ret i8 %.1
}